target datalayout = "e-m:e-p270:32:32-p271:32:32-p272:64:64-i64:64-i128:128-f80:128-n8:16:32:64-S128"
target triple = "x86_64-pc-linux-gnu"

@.str.1 = private unnamed_addr constant [4 x i8] c"BZh\00", align 1
@.str.2 = private unnamed_addr constant [7 x i8] c"1AY&SY\00", align 1
@.str.3 = private unnamed_addr constant [7 x i8] c"\17rE8P\90\00", align 1

; Function Attrs: nounwind uwtable
define internal i32 @bzip2_reader_bid(ptr noundef %0, ptr noundef %1) #0 {
  %3 = alloca i32, align 4
  %4 = alloca ptr, align 8
  %5 = alloca ptr, align 8
  %6 = alloca ptr, align 8
  %7 = alloca i64, align 8
  %8 = alloca i32, align 4
  store ptr %0, ptr %4, align 8
  store ptr %1, ptr %5, align 8
  %9 = load ptr, ptr %5, align 8
  %10 = call ptr @__archive_read_filter_ahead(ptr noundef %9, i64 noundef 14, ptr noundef %7)
  store ptr %10, ptr %6, align 8
  %11 = load ptr, ptr %6, align 8
  %12 = icmp eq ptr %11, null
  br i1 %12, label %13, label %14

13:                                               ; preds = %2
  store i32 0, ptr %3, align 4
  br label %56

14:                                               ; preds = %2
  store i32 0, ptr %8, align 4
  %15 = load ptr, ptr %6, align 8
  %16 = call i32 @memcmp(ptr noundef %15, ptr noundef @.str.1, i64 noundef 3) #6
  %17 = icmp ne i32 %16, 0
  br i1 %17, label %18, label %19

18:                                               ; preds = %14
  store i32 0, ptr %3, align 4
  br label %56

19:                                               ; preds = %14
  %20 = load i32, ptr %8, align 4
  %21 = add nsw i32 %20, 24
  store i32 %21, ptr %8, align 4
  %22 = load ptr, ptr %6, align 8
  %23 = getelementptr inbounds i8, ptr %22, i64 3
  %24 = load i8, ptr %23, align 1
  %25 = zext i8 %24 to i32
  %26 = icmp slt i32 %25, 49
  br i1 %26, label %33, label %27

27:                                               ; preds = %19
  %28 = load ptr, ptr %6, align 8
  %29 = getelementptr inbounds i8, ptr %28, i64 3
  %30 = load i8, ptr %29, align 1
  %31 = zext i8 %30 to i32
  %32 = icmp sgt i32 %31, 57
  br i1 %32, label %33, label %34

33:                                               ; preds = %27, %19
  store i32 0, ptr %3, align 4
  br label %56

34:                                               ; preds = %27
  %35 = load i32, ptr %8, align 4
  %36 = add nsw i32 %35, 5
  store i32 %36, ptr %8, align 4
  %37 = load ptr, ptr %6, align 8
  %38 = getelementptr inbounds i8, ptr %37, i64 4
  %39 = call i32 @memcmp(ptr noundef %38, ptr noundef @.str.2, i64 noundef 6) #6
  %40 = icmp eq i32 %39, 0
  br i1 %40, label %41, label %44

41:                                               ; preds = %34
  %42 = load i32, ptr %8, align 4
  %43 = add nsw i32 %42, 48
  store i32 %43, ptr %8, align 4
  br label %54

44:                                               ; preds = %34
  %45 = load ptr, ptr %6, align 8
  %46 = getelementptr inbounds i8, ptr %45, i64 4
  %47 = call i32 @memcmp(ptr noundef %46, ptr noundef @.str.3, i64 noundef 6) #6
  %48 = icmp eq i32 %47, 0
  br i1 %48, label %49, label %52

49:                                               ; preds = %44
  %50 = load i32, ptr %8, align 4
  %51 = add nsw i32 %50, 48
  store i32 %51, ptr %8, align 4
  br label %53

52:                                               ; preds = %44
  store i32 0, ptr %3, align 4
  br label %56

53:                                               ; preds = %49
  br label %54

54:                                               ; preds = %53, %41
  %55 = load i32, ptr %8, align 4
  store i32 %55, ptr %3, align 4
  br label %56

56:                                               ; preds = %54, %52, %33, %18, %13
  %57 = load i32, ptr %3, align 4
  ret i32 %57
}