; Function Attrs: nounwind uwtable
define internal range(i32 0, 78) i32 @bzip2_reader_bid(ptr readnone captures(none) %0, ptr noundef %1) #0 {
  %3 = alloca i64, align 8
  %4 = call ptr @__archive_read_filter_ahead(ptr noundef %1, i64 noundef 14, ptr noundef nonnull %3) #7
  %5 = icmp eq ptr %4, null
  br i1 %5, label %17, label %6

6:                                                ; preds = %2
  %bcmp = call i32 @bcmp(ptr noundef nonnull dereferenceable(3) %4, ptr noundef nonnull dereferenceable(3) @.str.1, i64 3)
  %.not = icmp eq i32 %bcmp, 0
  br i1 %.not, label %7, label %17

7:                                                ; preds = %6
  %8 = getelementptr inbounds nuw i8, ptr %4, i64 3
  %9 = load i8, ptr %8, align 1
  %10 = add i8 %9, -58
  %or.cond = icmp ult i8 %10, -9
  br i1 %or.cond, label %17, label %11

11:                                               ; preds = %7
  %12 = getelementptr inbounds nuw i8, ptr %4, i64 4
  %bcmp15 = call i32 @bcmp(ptr noundef nonnull dereferenceable(6) %12, ptr noundef nonnull dereferenceable(6) @.str.2, i64 6)
  %13 = icmp eq i32 %bcmp15, 0
  br i1 %13, label %16, label %14

14:                                               ; preds = %11
  %bcmp16 = call i32 @bcmp(ptr noundef nonnull dereferenceable(6) %12, ptr noundef nonnull dereferenceable(6) @.str.3, i64 6)
  %15 = icmp eq i32 %bcmp16, 0
  br i1 %15, label %16, label %17

16:                                               ; preds = %14, %11
  br label %17

17:                                               ; preds = %14, %7, %6, %2, %16
  %.012 = phi i32 [ 77, %16 ], [ 0, %2 ], [ 0, %6 ], [ 0, %7 ], [ 0, %14 ]
  ret i32 %.012
}